; ModuleID = '38/26.c'
source_filename = "38/26.c"
target datalayout = "e-m:e-p270:32:32-p271:32:32-p272:64:64-i64:64-f80:128-n8:16:32:64-S128"
target triple = "x86_64-pc-linux-gnu"

@.str = private unnamed_addr constant [3 x i8] c"%d\00", align 1
@.str.1 = private unnamed_addr constant [4 x i8] c"%lf\00", align 1
@.str.2 = private unnamed_addr constant [7 x i8] c"%.5lf\0A\00", align 1

; Function Attrs: noinline nounwind uwtable
define dso_local i32 @main() #0 {
  %1 = alloca i32, align 4
  %2 = alloca i32, align 4
  %3 = alloca i32, align 4
  %4 = alloca i32, align 4
  %5 = alloca i32, align 4
  %6 = alloca double, align 8
  %7 = alloca double, align 8
  %8 = alloca double, align 8
  %9 = alloca double, align 8
  %10 = alloca double, align 8
  %11 = alloca [100 x double], align 16
  %12 = alloca double*, align 8
  store i32 0, i32* %1, align 4
  %13 = getelementptr inbounds [100 x double], [100 x double]* %11, i64 0, i64 0
  store double* %13, double** %12, align 8
  %14 = call i32 (i8*, ...) @__isoc99_scanf(i8* getelementptr inbounds ([3 x i8], [3 x i8]* @.str, i64 0, i64 0), i32* %3)
  store i32 0, i32* %5, align 4
  br label %15

15:                                               ; preds = %89, %0
  %16 = load i32, i32* %5, align 4
  %17 = load i32, i32* %3, align 4
  %18 = icmp slt i32 %16, %17
  br i1 %18, label %19, label %92

19:                                               ; preds = %15
  store double 0.000000e+00, double* %6, align 8
  store double 0.000000e+00, double* %7, align 8
  %20 = call i32 (i8*, ...) @__isoc99_scanf(i8* getelementptr inbounds ([3 x i8], [3 x i8]* @.str, i64 0, i64 0), i32* %2)
  store i32 0, i32* %4, align 4
  br label %21

21:                                               ; preds = %31, %19
  %22 = load i32, i32* %4, align 4
  %23 = load i32, i32* %2, align 4
  %24 = icmp slt i32 %22, %23
  br i1 %24, label %25, label %34

25:                                               ; preds = %21
  %26 = load double*, double** %12, align 8
  %27 = load i32, i32* %4, align 4
  %28 = sext i32 %27 to i64
  %29 = getelementptr inbounds double, double* %26, i64 %28
  %30 = call i32 (i8*, ...) @__isoc99_scanf(i8* getelementptr inbounds ([4 x i8], [4 x i8]* @.str.1, i64 0, i64 0), double* %29)
  br label %31

31:                                               ; preds = %25
  %32 = load i32, i32* %4, align 4
  %33 = add nsw i32 %32, 1
  store i32 %33, i32* %4, align 4
  br label %21

34:                                               ; preds = %21
  store i32 0, i32* %4, align 4
  br label %35

35:                                               ; preds = %47, %34
  %36 = load i32, i32* %4, align 4
  %37 = load i32, i32* %2, align 4
  %38 = icmp slt i32 %36, %37
  br i1 %38, label %39, label %50

39:                                               ; preds = %35
  %40 = load double*, double** %12, align 8
  %41 = load i32, i32* %4, align 4
  %42 = sext i32 %41 to i64
  %43 = getelementptr inbounds double, double* %40, i64 %42
  %44 = load double, double* %43, align 8
  %45 = load double, double* %6, align 8
  %46 = fadd double %45, %44
  store double %46, double* %6, align 8
  br label %47

47:                                               ; preds = %39
  %48 = load i32, i32* %4, align 4
  %49 = add nsw i32 %48, 1
  store i32 %49, i32* %4, align 4
  br label %35

50:                                               ; preds = %35
  %51 = load double, double* %6, align 8
  %52 = load i32, i32* %2, align 4
  %53 = sitofp i32 %52 to double
  %54 = fdiv double %51, %53
  store double %54, double* %10, align 8
  store i32 0, i32* %4, align 4
  br label %55

55:                                               ; preds = %77, %50
  %56 = load i32, i32* %4, align 4
  %57 = load i32, i32* %2, align 4
  %58 = icmp slt i32 %56, %57
  br i1 %58, label %59, label %80

59:                                               ; preds = %55
  %60 = load double*, double** %12, align 8
  %61 = load i32, i32* %4, align 4
  %62 = sext i32 %61 to i64
  %63 = getelementptr inbounds double, double* %60, i64 %62
  %64 = load double, double* %63, align 8
  %65 = load double, double* %10, align 8
  %66 = fsub double %64, %65
  %67 = load double*, double** %12, align 8
  %68 = load i32, i32* %4, align 4
  %69 = sext i32 %68 to i64
  %70 = getelementptr inbounds double, double* %67, i64 %69
  %71 = load double, double* %70, align 8
  %72 = load double, double* %10, align 8
  %73 = fsub double %71, %72
  %74 = fmul double %66, %73
  %75 = load double, double* %7, align 8
  %76 = fadd double %75, %74
  store double %76, double* %7, align 8
  br label %77

77:                                               ; preds = %59
  %78 = load i32, i32* %4, align 4
  %79 = add nsw i32 %78, 1
  store i32 %79, i32* %4, align 4
  br label %55

80:                                               ; preds = %55
  %81 = load double, double* %7, align 8
  %82 = load i32, i32* %2, align 4
  %83 = sitofp i32 %82 to double
  %84 = fdiv double %81, %83
  store double %84, double* %8, align 8
  %85 = load double, double* %8, align 8
  %86 = call double @sqrt(double %85) #3
  store double %86, double* %9, align 8
  %87 = load double, double* %9, align 8
  %88 = call i32 (i8*, ...) @printf(i8* getelementptr inbounds ([7 x i8], [7 x i8]* @.str.2, i64 0, i64 0), double %87)
  br label %89

89:                                               ; preds = %80
  %90 = load i32, i32* %5, align 4
  %91 = add nsw i32 %90, 1
  store i32 %91, i32* %5, align 4
  br label %15

92:                                               ; preds = %15
  ret i32 0
}

declare dso_local i32 @__isoc99_scanf(i8*, ...) #1

; Function Attrs: nounwind
declare dso_local double @sqrt(double) #2

declare dso_local i32 @printf(i8*, ...) #1


!llvm.module.flags = !{!0}
!llvm.ident = !{!1}

!0 = !{i32 1, !"wchar_size", i32 4}
!1 = !{!"clang version 10.0.0-4ubuntu1 "}
